Certificate:
    Data:
        Version: 3 (0x2)
        Serial Number: 1234 (0x4d2)
        Signature Algorithm: sha1WithRSAEncryption
        Issuer: CN=Root
        Validity
            Not Before: May 13 18:59:46 2009 GMT
            Not After : May 13 18:59:46 2010 GMT
        Subject: CN=Root
        Subject Public Key Info:
            Public Key Algorithm: rsaEncryption
            RSA Public Key: (4096 bit)
                Modulus (4096 bit):
                    00:b2:ed:1d:e9:8a:56:80:a8:d4:d8:ca:da:e7:d0:
                    66:75:66:df:3c:2a:7d:79:d7:62:d7:3e:69:a0:d9:
                    3e:46:fd:e2:55:a7:18:58:81:bd:79:49:ae:37:de:
                    28:17:a7:0d:e4:1b:f1:d6:69:b5:5e:ce:30:02:74:
                    7b:ff:65:9e:db:88:29:29:dc:99:bc:5c:6b:b3:e0:
                    a1:74:2d:77:a0:24:b8:cb:33:61:2a:fe:62:77:75:
                    a9:09:7c:8a:6b:ab:97:b0:a6:bc:f8:0c:c8:28:71:
                    20:2b:61:e4:18:f0:69:b2:1b:ff:c1:16:f0:6a:fd:
                    1a:c9:71:90:23:bb:f2:9a:6c:9e:e9:4e:39:13:0c:
                    d0:cb:28:1d:50:7e:f8:e8:ba:9b:08:ed:9d:1f:64:
                    4b:e7:ee:a6:11:19:58:3c:50:20:40:5f:57:dc:de:
                    46:73:c8:c6:7d:01:79:31:92:30:1a:74:72:00:cc:
                    84:76:25:fd:55:f8:b8:a9:9a:88:35:24:29:51:08:
                    91:79:54:af:f6:8a:cb:a3:04:04:7c:68:e1:02:7e:
                    b0:4e:d7:18:db:38:96:0f:0c:90:71:33:4e:af:08:
                    e1:7e:46:1e:2a:af:ba:a0:2c:01:eb:ce:0d:35:04:
                    66:48:62:16:28:69:81:c6:b2:b8:18:b5:ea:78:b1:
                    43:05:9f:41:08:08:89:5a:a4:cc:66:4c:5e:9d:4c:
                    3a:9a:12:09:89:85:9f:b9:66:49:8b:37:98:13:69:
                    81:1e:b5:4d:22:e9:13:6f:d9:25:0c:e3:88:54:c4:
                    e1:a2:4f:9d:9f:c1:17:e6:a1:d5:73:de:08:72:10:
                    44:1b:20:a8:70:a3:22:90:be:94:cd:f0:27:1b:1a:
                    b7:ff:be:20:90:2c:84:35:6b:b1:36:bc:cf:74:2f:
                    6c:ab:e9:4d:28:88:0d:0c:f4:46:e7:6b:df:06:22:
                    5c:18:12:0e:58:99:fd:92:d2:42:86:68:9a:d6:ad:
                    3f:15:57:78:ab:3a:e1:fc:10:2d:3d:b7:70:f1:7e:
                    3d:00:c3:58:32:c8:21:a9:29:d4:94:a6:e1:39:80:
                    6c:39:3a:fd:5f:d5:0b:1f:68:ef:f6:53:10:7f:6d:
                    c9:24:52:53:da:f3:51:8f:0f:3d:b6:a1:b0:bf:1a:
                    6f:74:ed:ee:98:e6:67:18:ad:c6:4d:b2:c2:c6:d1:
                    a0:bb:96:d5:92:f8:3b:89:b6:f0:9e:38:00:b0:8e:
                    74:e1:da:7f:bd:97:5a:a2:e2:c1:77:c4:a4:06:4f:
                    b6:9f:f0:e8:7d:c6:05:d2:e4:60:e4:6e:0f:42:2a:
                    14:c3:12:a9:e2:72:9e:89:79:82:fd:e5:2b:a2:00:
                    fb:12:f5
                Exponent: 65537 (0x10001)
        X509v3 extensions:
            X509v3 Subject Key Identifier: 
                45:81:40:C8:10:FE:C3:4B:59:40:21:B2:73:F6:2E:AB:5B:C6:31:AF
            X509v3 Authority Key Identifier: 
                keyid:45:81:40:C8:10:FE:C3:4B:59:40:21:B2:73:F6:2E:AB:5B:C6:31:AF
                DirName:/CN=Root
                serial:04:D2

            X509v3 Basic Constraints: critical
                CA:TRUE
            X509v3 Key Usage: 
                Certificate Sign, CRL Sign
    Signature Algorithm: sha1WithRSAEncryption
        64:0f:26:68:90:97:08:0e:5a:5a:d4:7b:fb:59:4b:9d:1e:c7:
        a0:c1:96:e6:7b:88:ad:af:2f:d7:71:4c:64:ba:e7:a6:51:59:
        a5:cf:e5:77:a8:c1:4e:d2:67:51:88:aa:f2:fc:9b:a1:67:c2:
        fb:68:55:cd:2d:53:3a:f7:c8:f0:07:bc:00:7e:ec:f3:fc:6a:
        41:3c:0d:3a:0f:e4:91:70:84:9f:2c:a3:88:23:12:9b:06:a8:
        09:6b:e7:e9:ee:2e:e8:49:12:53:85:66:b5:0a:5f:6c:b8:69:
        25:c9:33:cb:b4:e7:48:41:c1:e3:1e:e9:c3:73:a6:c2:ec:9d:
        a5:fc:26:b2:b6:35:db:d6:ba:b1:45:d3:8d:5e:85:52:ef:f5:
        31:68:c6:43:f7:08:96:e2:49:df:8d:1d:03:56:cd:6e:a2:71:
        87:d7:c0:05:af:f7:15:65:bf:76:e8:8a:a3:a1:b3:2f:14:e6:
        68:dd:42:a9:b6:c6:8c:b7:b5:9f:df:68:75:ed:1a:bf:be:0f:
        21:7c:5a:e6:55:13:76:1b:c1:0f:8f:cd:78:43:22:70:bb:34:
        be:0f:94:d9:6c:1e:b2:09:1d:6c:cd:7b:ff:2e:54:6a:dc:ee:
        8e:eb:e8:eb:a2:fb:22:35:5b:b2:5c:c9:4c:de:c9:fa:3a:56:
        3f:21:28:f4:11:d3:0e:51:2b:03:74:a3:41:f2:f0:b0:5b:7e:
        dc:2d:a5:06:42:05:19:48:38:23:eb:88:88:0a:9c:8f:f2:c4:
        04:54:31:ed:9a:fa:30:c6:8b:f0:b2:ca:25:18:f7:79:89:d4:
        31:2c:97:f5:4c:72:bf:40:00:80:44:27:dd:3e:5e:94:78:8e:
        59:ad:24:bb:cd:7c:ea:dd:c3:1c:5d:11:2e:56:9e:d1:bb:3b:
        7a:7e:14:5d:68:20:9c:f8:f0:1a:5a:7a:ab:7a:93:92:b3:b3:
        f2:ff:82:9f:73:a1:a5:1a:7f:ca:7c:91:84:8b:d7:f8:9b:a1:
        e2:64:80:7b:4d:ef:4b:0e:27:f6:b9:f5:80:e6:06:f9:1a:b1:
        26:f9:87:cb:13:4e:88:dd:86:da:60:c4:0e:2f:13:9d:ed:d0:
        65:e6:e7:c6:b2:f6:0e:80:d8:4e:38:7a:b6:bc:2c:6f:ef:1d:
        c4:79:f3:9b:9a:ee:98:3d:25:7f:0c:74:74:98:eb:cf:fd:26:
        fe:0e:2f:18:43:33:22:02:63:13:e7:d0:c1:48:c0:b0:4b:d7:
        0e:ba:bd:2e:39:4b:47:c8:74:dd:24:3b:a5:85:18:f5:46:19:
        a4:8f:b7:f7:dd:35:f6:8f:e4:2c:7f:f6:6f:e2:c4:c2:cb:52:
        b6:59:a8:93:02:1f:6a:ee
-----BEGIN CERTIFICATE-----
MIIFEzCCAvugAwIBAgICBNIwDQYJKoZIhvcNAQEFBQAwDzENMAsGA1UEAxMEUm9v
dDAeFw0wOTA1MTMxODU5NDZaFw0xMDA1MTMxODU5NDZaMA8xDTALBgNVBAMTBFJv
b3QwggIiMA0GCSqGSIb3DQEBAQUAA4ICDwAwggIKAoICAQCy7R3pilaAqNTYytrn
0GZ1Zt88Kn1512LXPmmg2T5G/eJVpxhYgb15Sa433igXpw3kG/HWabVezjACdHv/
ZZ7biCkp3Jm8XGuz4KF0LXegJLjLM2Eq/mJ3dakJfIprq5ewprz4DMgocSArYeQY
8GmyG//BFvBq/RrJcZAju/KabJ7pTjkTDNDLKB1QfvjoupsI7Z0fZEvn7qYRGVg8
UCBAX1fc3kZzyMZ9AXkxkjAadHIAzIR2Jf1V+Lipmog1JClRCJF5VK/2isujBAR8
aOECfrBO1xjbOJYPDJBxM06vCOF+Rh4qr7qgLAHrzg01BGZIYhYoaYHGsrgYtep4
sUMFn0EICIlapMxmTF6dTDqaEgmJhZ+5ZkmLN5gTaYEetU0i6RNv2SUM44hUxOGi
T52fwRfmodVz3ghyEEQbIKhwoyKQvpTN8CcbGrf/viCQLIQ1a7E2vM90L2yr6U0o
iA0M9Ebna98GIlwYEg5Ymf2S0kKGaJrWrT8VV3irOuH8EC09t3Dxfj0Aw1gyyCGp
KdSUpuE5gGw5Ov1f1QsfaO/2UxB/bckkUlPa81GPDz22obC/Gm907e6Y5mcYrcZN
ssLG0aC7ltWS+DuJtvCeOACwjnTh2n+9l1qi4sF3xKQGT7af8Oh9xgXS5GDkbg9C
KhTDEqnicp6JeYL95SuiAPsS9QIDAQABo3kwdzAdBgNVHQ4EFgQURYFAyBD+w0tZ
QCGyc/Yuq1vGMa8wOAYDVR0jBDEwL4AURYFAyBD+w0tZQCGyc/Yuq1vGMa+hE6QR
MA8xDTALBgNVBAMTBFJvb3SCAgTSMA8GA1UdEwEB/wQFMAMBAf8wCwYDVR0PBAQD
AgEGMA0GCSqGSIb3DQEBBQUAA4ICAQBkDyZokJcIDlpa1Hv7WUudHsegwZbme4it
ry/XcUxkuuemUVmlz+V3qMFO0mdRiKry/JuhZ8L7aFXNLVM698jwB7wAfuzz/GpB
PA06D+SRcISfLKOIIxKbBqgJa+fp7i7oSRJThWa1Cl9suGklyTPLtOdIQcHjHunD
c6bC7J2l/CaytjXb1rqxRdONXoVS7/UxaMZD9wiW4knfjR0DVs1uonGH18AFr/cV
Zb926IqjobMvFOZo3UKptsaMt7Wf32h17Rq/vg8hfFrmVRN2G8EPj814QyJwuzS+
D5TZbB6yCR1szXv/LlRq3O6O6+jrovsiNVuyXMlM3sn6OlY/ISj0EdMOUSsDdKNB
8vCwW37cLaUGQgUZSDgj64iICpyP8sQEVDHtmvowxovwssolGPd5idQxLJf1THK/
QACARCfdPl6UeI5ZrSS7zXzq3cMcXREuVp7Ruzt6fhRdaCCc+PAaWnqrepOSs7Py
/4Kfc6GlGn/KfJGEi9f4m6HiZIB7Te9LDif2ufWA5gb5GrEm+YfLE06I3YbaYMQO
LxOd7dBl5ufGsvYOgNhOOHq2vCxv7x3EefObmu6YPSV/DHR0mOvP/Sb+Di8YQzMi
AmMT59DBSMCwS9cOur0uOUtHyHTdJDulhRj1Rhmkj7f33TX2j+Qsf/Zv4sTCy1K2
WaiTAh9q7g==
-----END CERTIFICATE-----
