Certificate:
    Data:
        Version: 3 (0x2)
        Serial Number: 1235 (0x4d3)
        Signature Algorithm: sha1WithRSAEncryption
        Issuer: CN=Root
        Validity
            Not Before: May 13 18:59:52 2009 GMT
            Not After : May 13 18:59:52 2010 GMT
        Subject: CN=localhost
        Subject Public Key Info:
            Public Key Algorithm: rsaEncryption
            RSA Public Key: (4096 bit)
                Modulus (4096 bit):
                    00:be:83:f7:53:20:cb:f7:eb:29:1d:a7:24:52:8d:
                    2a:4e:a9:6e:8f:fa:ff:31:5d:37:a9:ab:27:4f:9d:
                    ba:02:07:29:58:73:40:65:8f:af:95:5d:b5:e9:16:
                    e2:86:f9:37:4e:5f:c7:25:b6:44:b4:20:5b:72:59:
                    93:44:37:a5:b0:22:36:29:a4:fb:8d:86:01:2f:74:
                    0d:f2:29:ac:bd:2d:0d:58:c7:3d:a9:c8:0f:4f:74:
                    ee:1b:5a:d3:89:c5:b4:5d:22:68:21:6e:7d:f3:50:
                    3a:ee:01:b3:08:62:11:29:0a:8b:f5:2c:0d:eb:c4:
                    33:af:e6:b2:92:e5:76:5e:a4:1b:61:04:04:70:0d:
                    d3:10:d6:40:8a:79:11:1b:52:25:3d:c3:9b:cb:fa:
                    67:8f:ff:0b:81:24:d8:9f:e2:e9:4d:1b:8b:82:99:
                    4b:45:ce:f2:3e:1c:97:35:d4:0c:e6:ec:09:e8:f0:
                    79:0f:50:b4:65:4c:72:13:1d:13:68:f0:cc:e3:1d:
                    bd:44:2c:08:63:78:ce:e3:56:dd:09:24:da:ff:7d:
                    45:b2:bd:33:f0:c3:b4:57:24:44:c8:21:78:c2:43:
                    d6:da:12:41:28:15:4e:08:ed:a9:1b:2d:58:27:ab:
                    6b:02:74:d2:c2:3a:4d:6d:37:67:3f:b6:78:06:9d:
                    89:60:07:fb:20:c7:3e:8a:6d:f8:b1:10:c9:a2:06:
                    0e:e6:e0:98:55:9e:fe:9b:12:7d:49:f3:db:49:35:
                    7b:fb:4b:17:0a:27:2b:fa:b8:fa:8d:fe:38:33:4c:
                    7f:df:be:4b:23:6c:6e:44:b8:da:fd:63:82:c3:ab:
                    2e:ea:af:b1:95:72:8f:c0:7a:31:9f:ac:36:1e:66:
                    a7:20:14:61:9d:e1:e1:b3:42:20:69:7a:cc:a7:85:
                    2d:00:79:de:ec:11:e0:9c:bd:2b:46:8e:64:8f:d9:
                    12:8d:0e:e6:a2:10:e6:be:9d:3e:52:bf:de:41:57:
                    c5:09:e6:45:02:ce:8b:9b:48:c7:4b:68:2e:82:f4:
                    0d:db:d1:d9:90:a3:d7:67:20:45:d5:a7:58:0d:3a:
                    c3:a4:56:4a:65:49:f7:ec:a3:2c:ff:d5:1c:a2:e9:
                    f8:08:7f:08:61:0e:a3:19:6d:4e:3c:f5:46:99:22:
                    d0:17:14:53:a5:3b:e8:80:ca:f6:2b:54:5f:f2:05:
                    04:21:59:c9:37:f2:d3:1e:90:a7:d7:c8:46:91:59:
                    7b:b1:20:06:9a:0b:c6:6c:6b:de:d1:97:b4:b1:01:
                    d3:ef:1e:d4:06:54:e3:4d:78:2c:7f:49:00:4d:8f:
                    db:20:fa:51:d9:99:f2:37:c4:c9:65:f2:c2:47:f7:
                    6f:de:c5
                Exponent: 65537 (0x10001)
    Signature Algorithm: sha1WithRSAEncryption
        a8:d2:fd:a0:75:74:8f:53:48:c4:8f:36:b3:6d:76:66:ae:3c:
        b2:97:9e:75:7e:22:31:39:b0:57:54:b6:e9:ad:62:fc:c7:4b:
        c8:2c:f2:b5:3a:73:65:42:44:c7:a8:d4:e3:8d:52:b7:3f:fd:
        61:05:96:04:06:cf:be:43:26:91:26:1e:c0:04:57:a0:04:ed:
        ef:12:08:55:51:3c:ee:d8:d6:3d:e5:d6:20:a6:0f:a7:bb:06:
        91:a6:2d:bd:87:05:3b:73:56:a1:30:a2:5d:09:7f:4b:b6:d5:
        26:3c:51:28:e1:cf:7d:07:c6:c4:e0:44:16:9d:f1:aa:32:db:
        94:46:49:ff:84:fd:88:c7:0e:92:21:f8:48:9a:ba:f8:a5:04:
        a4:04:13:c6:57:70:a4:b4:f7:ed:6a:ad:2a:4c:78:a9:1c:9c:
        e4:8c:9e:f2:25:c0:49:3c:5a:26:b7:e8:12:81:00:70:09:ae:
        06:cc:49:d9:2e:44:ab:ed:d0:b7:b5:47:9e:07:3d:00:d6:d6:
        6b:96:71:39:ef:f9:27:31:ef:83:b1:1d:8f:64:2b:75:96:e6:
        c1:fb:be:bc:48:7a:1a:3a:f3:cf:35:1b:f8:1f:15:51:73:96:
        77:c7:02:64:ce:9e:aa:f5:16:a0:fd:34:af:b4:85:eb:e1:fb:
        c9:cf:a1:a8:9d:9c:02:c8:b7:60:a2:a7:3c:20:1e:08:02:1c:
        f1:dd:24:e8:a5:01:14:f0:d8:b0:3d:38:5f:e1:2c:58:e1:18:
        82:d0:2a:47:db:b4:5a:13:6d:c8:39:3e:ce:0a:7a:22:f3:17:
        bd:65:b7:ce:a4:d2:3a:b6:e0:b2:27:0e:46:75:08:0f:09:f0:
        65:35:f4:d2:de:d7:63:46:37:e3:68:7f:86:1d:c6:eb:dd:f3:
        77:cc:e6:ee:68:c8:f2:41:2e:f3:93:3f:bd:e6:7c:0c:d2:8a:
        20:d8:2e:d3:51:bb:75:06:16:9f:02:4b:07:eb:01:8c:81:ae:
        da:23:3f:1e:a6:e7:49:62:7a:f8:c4:1b:37:a6:35:7f:b8:f2:
        51:a7:81:cb:93:9d:54:63:d4:f9:a3:0d:4d:f7:14:3c:b7:fd:
        95:b0:3c:b1:2e:86:32:bd:5e:0c:2a:0b:b7:b1:75:9b:64:52:
        ff:7d:90:42:f0:16:3b:01:1f:dc:8f:5f:2e:c0:dc:1b:15:3b:
        f9:3d:00:23:e8:86:76:1d:3d:5f:aa:be:91:1e:8e:67:c3:4b:
        4e:e6:b4:f7:44:81:a7:e5:c9:59:07:5f:56:c2:e7:67:37:17:
        3b:d1:b8:84:2b:5c:47:53:bf:f9:78:36:e5:aa:9b:df:0d:5f:
        2e:71:e4:bd:79:b6:df:3e
-----BEGIN CERTIFICATE-----
MIIEnTCCAoWgAwIBAgICBNMwDQYJKoZIhvcNAQEFBQAwDzENMAsGA1UEAxMEUm9v
dDAeFw0wOTA1MTMxODU5NTJaFw0xMDA1MTMxODU5NTJaMBQxEjAQBgNVBAMTCWxv
Y2FsaG9zdDCCAiIwDQYJKoZIhvcNAQEBBQADggIPADCCAgoCggIBAL6D91Mgy/fr
KR2nJFKNKk6pbo/6/zFdN6mrJ0+dugIHKVhzQGWPr5VdtekW4ob5N05fxyW2RLQg
W3JZk0Q3pbAiNimk+42GAS90DfIprL0tDVjHPanID0907hta04nFtF0iaCFuffNQ
Ou4BswhiESkKi/UsDevEM6/mspLldl6kG2EEBHAN0xDWQIp5ERtSJT3Dm8v6Z4//
C4Ek2J/i6U0bi4KZS0XO8j4clzXUDObsCejweQ9QtGVMchMdE2jwzOMdvUQsCGN4
zuNW3Qkk2v99RbK9M/DDtFckRMgheMJD1toSQSgVTgjtqRstWCerawJ00sI6TW03
Zz+2eAadiWAH+yDHPopt+LEQyaIGDubgmFWe/psSfUnz20k1e/tLFwonK/q4+o3+
ODNMf9++SyNsbkS42v1jgsOrLuqvsZVyj8B6MZ+sNh5mpyAUYZ3h4bNCIGl6zKeF
LQB53uwR4Jy9K0aOZI/ZEo0O5qIQ5r6dPlK/3kFXxQnmRQLOi5tIx0toLoL0DdvR
2ZCj12cgRdWnWA06w6RWSmVJ9+yjLP/VHKLp+Ah/CGEOoxltTjz1Rpki0BcUU6U7
6IDK9itUX/IFBCFZyTfy0x6Qp9fIRpFZe7EgBpoLxmxr3tGXtLEB0+8e1AZU4014
LH9JAE2P2yD6UdmZ8jfEyWXywkf3b97FAgMBAAEwDQYJKoZIhvcNAQEFBQADggIB
AKjS/aB1dI9TSMSPNrNtdmauPLKXnnV+IjE5sFdUtumtYvzHS8gs8rU6c2VCRMeo
1OONUrc//WEFlgQGz75DJpEmHsAEV6AE7e8SCFVRPO7Y1j3l1iCmD6e7BpGmLb2H
BTtzVqEwol0Jf0u21SY8USjhz30HxsTgRBad8aoy25RGSf+E/YjHDpIh+Eiauvil
BKQEE8ZXcKS09+1qrSpMeKkcnOSMnvIlwEk8Wia36BKBAHAJrgbMSdkuRKvt0Le1
R54HPQDW1muWcTnv+Scx74OxHY9kK3WW5sH7vrxIeho68881G/gfFVFzlnfHAmTO
nqr1FqD9NK+0hevh+8nPoaidnALIt2CipzwgHggCHPHdJOilARTw2LA9OF/hLFjh
GILQKkfbtFoTbcg5Ps4KeiLzF71lt86k0jq24LInDkZ1CA8J8GU19NLe12NGN+No
f4Ydxuvd83fM5u5oyPJBLvOTP73mfAzSiiDYLtNRu3UGFp8CSwfrAYyBrtojPx6m
50lievjEGzemNX+48lGngcuTnVRj1PmjDU33FDy3/ZWwPLEuhjK9XgwqC7exdZtk
Uv99kELwFjsBH9yPXy7A3BsVO/k9ACPohnYdPV+qvpEejmfDS07mtPdEgaflyVkH
X1bC52c3FzvRuIQrXEdTv/l4NuWqm98NXy5x5L15tt8+
-----END CERTIFICATE-----
